(lp0
(dp1
S'Start'
p2
I0
sS'Model'
p3
S'rotational'
p4
sS'End'
p5
I6
sS'Length'
p6
I7
sS'Data'
p7
(dp8
S'model_evidence'
p9
F33.25896620024178
sS'params'
p10
(dp11
S'rot_center.x'
p12
F-0.002246724821193702
sS'rot_orientation.w'
p13
F-0.06546379775806314
sS'rot_center.z'
p14
F-0.024074526368627124
sS'rot_center.y'
p15
F0.01181315279906954
sS'rot_orientation.x'
p16
F0.7567834691135948
sS'rot_axis.w'
p17
F0.10537768451449628
sS'rot_orientation.y'
p18
F-0.6450310628774286
sS'rot_radius'
p19
F0.11458580159308553
sS'rot_orientation.z'
p20
F0.08323580949746993
sS'rot_axis.y'
p21
F0.09990249435248663
sS'rot_axis.x'
p22
F0.989346139034536
sS'rot_axis.z'
p23
F0.010452387572749822
ssS'log_likelihood'
p24
F55.63453009740801
ssa(dp25
g2
I7
sg3
S'rotational'
p26
sg5
I14
sg6
I8
sg7
(dp27
g9
F37.465292567197
sg10
(dp28
S'rot_center.x'
p29
F0.0025230747335184753
sS'rot_orientation.w'
p30
F0.8438317481900509
sS'rot_center.z'
p31
F0.0016225884709790122
sS'rot_center.y'
p32
F-0.005380864185914269
sS'rot_orientation.x'
p33
F-0.004949818297442185
sS'rot_axis.w'
p34
F0.9734742393355629
sS'rot_orientation.y'
p35
F-0.007144851188871253
sS'rot_radius'
p36
F0.09409814130212545
sS'rot_orientation.z'
p37
F0.5365374461739216
sS'rot_axis.y'
p38
F0.0014610836275036024
sS'rot_axis.x'
p39
F0.008568245696888558
sS'rot_axis.z'
p40
F0.228631484599909
ssg24
F63.45523534773062
ssa(dp41
g2
I15
sg3
S'rotational'
p42
sg5
I22
sg6
I8
sg7
(dp43
g9
F37.408288685953266
sg10
(dp44
S'rot_center.x'
p45
F-3.963068604329045e-05
sS'rot_orientation.w'
p46
F-0.0017331278119883326
sS'rot_center.z'
p47
F-0.0008403124298991339
sS'rot_center.y'
p48
F6.231860046321258e-06
sS'rot_orientation.x'
p49
F0.9178895003240429
sS'rot_axis.w'
p50
F0.001734435114510922
sS'rot_orientation.y'
p51
F-0.39681278102333567
sS'rot_radius'
p52
F0.10004025753204375
sS'rot_orientation.z'
p53
F0.00393424445001998
sS'rot_axis.y'
p54
F0.9448848169988859
sS'rot_axis.x'
p55
F-0.3273747097647842
sS'rot_axis.z'
p56
F-0.0039336682929235365
ssg24
F63.3995626567034
ssa(dp57
g2
I23
sg3
S'rotational'
p58
sg5
I28
sg6
I6
sg7
(dp59
g9
F28.55575975598238
sg10
(dp60
S'rot_center.x'
p61
F0.0038171693487813463
sS'rot_orientation.w'
p62
F-0.001079022619250547
sS'rot_center.z'
p63
F0.0002402373696743575
sS'rot_center.y'
p64
F-0.0006119985782803532
sS'rot_orientation.x'
p65
F0.9925763088592291
sS'rot_axis.w'
p66
F-0.001939287530628403
sS'rot_orientation.y'
p67
F-0.12160764402658339
sS'rot_radius'
p68
F0.09618488707638477
sS'rot_orientation.z'
p69
F-0.001639425472339548
sS'rot_axis.y'
p70
F0.8163988943133853
sS'rot_axis.x'
p71
F-0.577485058991304
sS'rot_axis.z'
p72
F0.0003019429842855277
ssg24
F47.36899152438755
ssa(dp73
g2
I29
sg3
S'prismatic'
p74
sg5
I40
sg6
I12
sg7
(dp75
g9
F55.83034906100362
sg10
(dp76
S'prismatic_dir.y'
p77
F0.9999999419478359
sS'prismatic_dir.x'
p78
F0.00017571722810138285
sS'prismatic_dir.z'
p79
F-0.0002919379742227537
sS'rigid_orientation.w'
p80
F1.0
sS'rigid_orientation.z'
p81
F0.0
sS'rigid_orientation.y'
p82
F0.0
sS'rigid_orientation.x'
p83
F0.0
sS'rigid_position.z'
p84
F1.6523835313806745e-05
sS'rigid_position.y'
p85
F0.0156441475655624
sS'rigid_position.x'
p86
F0.09985063839462757
ssg24
F95.5873324564834
ssa(dp87
g2
I41
sg3
S'prismatic'
p88
sg5
I49
sg6
I9
sg7
(dp89
g9
F42.81625938363269
sg10
(dp90
S'prismatic_dir.y'
p91
F0.9999995228391293
sS'prismatic_dir.x'
p92
F0.00025813770477345083
sS'prismatic_dir.z'
p93
F-0.0009421711304599322
sS'rigid_orientation.w'
p94
F1.0
sS'rigid_orientation.z'
p95
F0.0
sS'rigid_orientation.y'
p96
F0.0
sS'rigid_orientation.x'
p97
F0.0
sS'rigid_position.z'
p98
F2.3848421788737535e-05
sS'rigid_position.y'
p99
F0.13554602470761018
sS'rigid_position.x'
p100
F0.09980465538054176
ssg24
F71.37826413829512
ssa.